target datalayout = "e-m:e-p270:32:32-p271:32:32-p272:64:64-i64:64-i128:128-f80:128-n8:16:32:64-S128"
target triple = "x86_64-pc-linux-gnu"

%class.QString = type { %struct.QArrayDataPointer }
%struct.QArrayDataPointer = type { ptr, ptr, i64 }
%class.QPen = type { ptr }
%class.SequenceDiagram = type { %class.QCPAbstractPlottable, ptr, ptr, ptr, ptr, ptr, i32, double }
%class.QCPAbstractPlottable = type { %class.QCPLayerable.base, %class.QString, i8, i8, %class.QPen, %class.QBrush, %class.QPointer.2, %class.QPointer.2, i32, %class.QCPDataSelection, ptr }
%class.QCPLayerable.base = type <{ %class.QObject, i8, [7 x i8], ptr, %class.QPointer, ptr, i8 }>
%class.QObject = type { ptr, %class.QScopedPointer }
%class.QScopedPointer = type { ptr }
%class.QPointer = type { %class.QWeakPointer }
%class.QWeakPointer = type { ptr, ptr }
%class.QBrush = type { %"class.std::unique_ptr" }
%"class.std::unique_ptr" = type { %"struct.std::__uniq_ptr_data" }
%"struct.std::__uniq_ptr_data" = type { %"class.std::__uniq_ptr_impl" }
%"class.std::__uniq_ptr_impl" = type { %"class.std::tuple" }
%"class.std::tuple" = type { %"struct.std::_Tuple_impl" }
%"struct.std::_Tuple_impl" = type { %"struct.std::_Head_base.1" }
%"struct.std::_Head_base.1" = type { ptr }
%class.QPointer.2 = type { %class.QWeakPointer }
%class.QCPDataSelection = type { %class.QList }
%class.QList = type { %struct.QArrayDataPointer.3 }
%struct.QArrayDataPointer.3 = type { ptr, ptr, i64 }
%class.QMultiMap = type { %"class.QtPrivate::QExplicitlySharedDataPointerV2" }
%"class.QtPrivate::QExplicitlySharedDataPointerV2" = type { ptr }
%class.QMapData = type { %class.QSharedData, %"class.std::multimap" }
%class.QSharedData = type { %class.QAtomicInt }
%class.QAtomicInt = type { %class.QAtomicInteger }
%class.QAtomicInteger = type { %class.QBasicAtomicInteger }
%class.QBasicAtomicInteger = type { %"struct.std::atomic" }
%"struct.std::atomic" = type { %"struct.std::__atomic_base" }
%"struct.std::__atomic_base" = type { i32 }
%"class.std::multimap" = type { %"class.std::_Rb_tree" }
%"class.std::_Rb_tree" = type { %"struct.std::_Rb_tree<double, std::pair<const double, WSCPSeqData>, std::_Select1st<std::pair<const double, WSCPSeqData>>, std::less<double>>::_Rb_tree_impl" }
%"struct.std::_Rb_tree<double, std::pair<const double, WSCPSeqData>, std::_Select1st<std::pair<const double, WSCPSeqData>>, std::less<double>>::_Rb_tree_impl" = type { %"struct.std::_Rb_tree_key_compare", %"struct.std::_Rb_tree_header" }
%"struct.std::_Rb_tree_key_compare" = type { %"struct.std::less" }
%"struct.std::less" = type { i8 }
%"struct.std::_Rb_tree_header" = type { %"struct.std::_Rb_tree_node_base", i64 }
%"struct.std::_Rb_tree_node_base" = type { i32, ptr, ptr, ptr }

@_ZTV15SequenceDiagram = external unnamed_addr constant { [32 x ptr] }, align 8

; Function Attrs: mustprogress nounwind uwtable
define linkonce_odr void @_ZNSt15__new_allocatorISt13_Rb_tree_nodeISt4pairIKd11WSCPSeqDataEEED2Ev(ptr noundef nonnull align 1 dereferenceable(1) %0) unnamed_addr #0 comdat align 2 {
  %2 = alloca ptr, align 8
  store ptr %0, ptr %2, align 8
  ret void
}

; Function Attrs: mustprogress nounwind uwtable
define linkonce_odr void @_ZNSaISt13_Rb_tree_nodeISt4pairIKd11WSCPSeqDataEEED2Ev(ptr noundef nonnull align 1 dereferenceable(1) %0) unnamed_addr #0 comdat align 2 {
  %2 = alloca ptr, align 8
  store ptr %0, ptr %2, align 8
  %3 = load ptr, ptr %2, align 8
  call void @_ZNSt15__new_allocatorISt13_Rb_tree_nodeISt4pairIKd11WSCPSeqDataEEED2Ev(ptr noundef nonnull align 1 dereferenceable(1) %3) #15
  ret void
}

; Function Attrs: mustprogress nounwind uwtable
define linkonce_odr noundef ptr @_ZNKSt8_Rb_treeIdSt4pairIKd11WSCPSeqDataESt10_Select1stIS3_ESt4lessIdESaIS3_EE9_M_mbeginEv(ptr noundef nonnull align 8 dereferenceable(48) %0) #0 comdat align 2 {
  %2 = alloca ptr, align 8
  store ptr %0, ptr %2, align 8
  %3 = load ptr, ptr %2, align 8
  %4 = getelementptr inbounds %"class.std::_Rb_tree", ptr %3, i32 0, i32 0
  %5 = getelementptr inbounds i8, ptr %4, i64 8
  %6 = getelementptr inbounds %"struct.std::_Rb_tree_header", ptr %5, i32 0, i32 0
  %7 = getelementptr inbounds %"struct.std::_Rb_tree_node_base", ptr %6, i32 0, i32 1
  %8 = load ptr, ptr %7, align 8
  ret ptr %8
}

; Function Attrs: mustprogress nounwind uwtable
define linkonce_odr void @_ZNSt8_Rb_treeIdSt4pairIKd11WSCPSeqDataESt10_Select1stIS3_ESt4lessIdESaIS3_EE13_Rb_tree_implIS7_Lb1EED2Ev(ptr noundef nonnull align 8 dereferenceable(48) %0) unnamed_addr #0 comdat align 2 {
  %2 = alloca ptr, align 8
  store ptr %0, ptr %2, align 8
  %3 = load ptr, ptr %2, align 8
  call void @_ZNSaISt13_Rb_tree_nodeISt4pairIKd11WSCPSeqDataEEED2Ev(ptr noundef nonnull align 1 dereferenceable(1) %3) #15
  ret void
}

; Function Attrs: mustprogress nounwind uwtable
define linkonce_odr noundef ptr @_ZNSt8_Rb_treeIdSt4pairIKd11WSCPSeqDataESt10_Select1stIS3_ESt4lessIdESaIS3_EE8_M_beginEv(ptr noundef nonnull align 8 dereferenceable(48) %0) #0 comdat align 2 {
  %2 = alloca ptr, align 8
  store ptr %0, ptr %2, align 8
  %3 = load ptr, ptr %2, align 8
  %4 = call noundef ptr @_ZNKSt8_Rb_treeIdSt4pairIKd11WSCPSeqDataESt10_Select1stIS3_ESt4lessIdESaIS3_EE9_M_mbeginEv(ptr noundef nonnull align 8 dereferenceable(48) %3) #15
  ret ptr %4
}

; Function Attrs: mustprogress nounwind uwtable
define linkonce_odr void @_ZNSt8_Rb_treeIdSt4pairIKd11WSCPSeqDataESt10_Select1stIS3_ESt4lessIdESaIS3_EED2Ev(ptr noundef nonnull align 8 dereferenceable(48) %0) unnamed_addr #0 comdat align 2 personality ptr @__gxx_personality_v0 {
  %2 = alloca ptr, align 8
  store ptr %0, ptr %2, align 8
  %3 = load ptr, ptr %2, align 8
  %4 = call noundef ptr @_ZNSt8_Rb_treeIdSt4pairIKd11WSCPSeqDataESt10_Select1stIS3_ESt4lessIdESaIS3_EE8_M_beginEv(ptr noundef nonnull align 8 dereferenceable(48) %3) #15
  invoke void @_ZNSt8_Rb_treeIdSt4pairIKd11WSCPSeqDataESt10_Select1stIS3_ESt4lessIdESaIS3_EE8_M_eraseEPSt13_Rb_tree_nodeIS3_E(ptr noundef nonnull align 8 dereferenceable(48) %3, ptr noundef %4)
          to label %5 unwind label %7

5:                                                ; preds = %1
  %6 = getelementptr inbounds %"class.std::_Rb_tree", ptr %3, i32 0, i32 0
  call void @_ZNSt8_Rb_treeIdSt4pairIKd11WSCPSeqDataESt10_Select1stIS3_ESt4lessIdESaIS3_EE13_Rb_tree_implIS7_Lb1EED2Ev(ptr noundef nonnull align 8 dereferenceable(48) %6) #15
  ret void

7:                                                ; preds = %1
  %8 = landingpad { ptr, i32 }
          catch ptr null
  %9 = extractvalue { ptr, i32 } %8, 0
  call void @__clang_call_terminate(ptr %9) #17
  unreachable
}

; Function Attrs: mustprogress nounwind uwtable
define linkonce_odr noundef i32 @_ZNSt13__atomic_baseIiEmmEv(ptr noundef nonnull align 4 dereferenceable(4) %0) #0 comdat align 2 {
  %2 = alloca ptr, align 8
  %3 = alloca i32, align 4
  %4 = alloca i32, align 4
  store ptr %0, ptr %2, align 8
  %5 = load ptr, ptr %2, align 8
  %6 = getelementptr inbounds %"struct.std::__atomic_base", ptr %5, i32 0, i32 0
  store i32 1, ptr %3, align 4
  %7 = load i32, ptr %3, align 4
  %8 = atomicrmw sub ptr %6, i32 %7 seq_cst, align 4
  %9 = sub i32 %8, %7
  store i32 %9, ptr %4, align 4
  %10 = load i32, ptr %4, align 4
  ret i32 %10
}

; Function Attrs: mustprogress nounwind uwtable
define linkonce_odr void @_ZNSt8multimapId11WSCPSeqDataSt4lessIdESaISt4pairIKdS0_EEED2Ev(ptr noundef nonnull align 8 dereferenceable(48) %0) unnamed_addr #0 comdat align 2 {
  %2 = alloca ptr, align 8
  store ptr %0, ptr %2, align 8
  %3 = load ptr, ptr %2, align 8
  %4 = getelementptr inbounds %"class.std::multimap", ptr %3, i32 0, i32 0
  call void @_ZNSt8_Rb_treeIdSt4pairIKd11WSCPSeqDataESt10_Select1stIS3_ESt4lessIdESaIS3_EED2Ev(ptr noundef nonnull align 8 dereferenceable(48) %4) #15
  ret void
}

; Function Attrs: mustprogress nounwind uwtable
define linkonce_odr noundef zeroext i1 @_ZN10QAtomicOpsIiE5derefIiEEbRSt6atomicIT_E(ptr noundef nonnull align 4 dereferenceable(4) %0) #0 comdat align 2 {
  %2 = alloca ptr, align 8
  store ptr %0, ptr %2, align 8
  %3 = load ptr, ptr %2, align 8
  %4 = call noundef i32 @_ZNSt13__atomic_baseIiEmmEv(ptr noundef nonnull align 4 dereferenceable(4) %3) #15
  %5 = icmp ne i32 %4, 0
  ret i1 %5
}

; Function Attrs: mustprogress nounwind uwtable
define linkonce_odr void @_ZN8QMapDataISt8multimapId11WSCPSeqDataSt4lessIdESaISt4pairIKdS1_EEEED2Ev(ptr noundef nonnull align 8 dereferenceable(56) %0) unnamed_addr #0 comdat align 2 {
  %2 = alloca ptr, align 8
  store ptr %0, ptr %2, align 8
  %3 = load ptr, ptr %2, align 8
  %4 = getelementptr inbounds %class.QMapData, ptr %3, i32 0, i32 1
  call void @_ZNSt8multimapId11WSCPSeqDataSt4lessIdESaISt4pairIKdS0_EEED2Ev(ptr noundef nonnull align 8 dereferenceable(48) %4) #15
  ret void
}

; Function Attrs: mustprogress nounwind uwtable
define linkonce_odr noundef zeroext i1 @_ZN19QBasicAtomicIntegerIiE5derefEv(ptr noundef nonnull align 4 dereferenceable(4) %0) #0 comdat align 2 {
  %2 = alloca ptr, align 8
  store ptr %0, ptr %2, align 8
  %3 = load ptr, ptr %2, align 8
  %4 = getelementptr inbounds %class.QBasicAtomicInteger, ptr %3, i32 0, i32 0
  %5 = call noundef zeroext i1 @_ZN10QAtomicOpsIiE5derefIiEEbRSt6atomicIT_E(ptr noundef nonnull align 4 dereferenceable(4) %4) #15
  ret i1 %5
}

; Function Attrs: mustprogress nounwind uwtable
define linkonce_odr void @_ZN9QtPrivate30QExplicitlySharedDataPointerV2I8QMapDataISt8multimapId11WSCPSeqDataSt4lessIdESaISt4pairIKdS3_EEEEED2Ev(ptr noundef nonnull align 8 dereferenceable(8) %0) unnamed_addr #0 comdat align 2 {
  %2 = alloca ptr, align 8
  store ptr %0, ptr %2, align 8
  %3 = load ptr, ptr %2, align 8
  %4 = getelementptr inbounds %"class.QtPrivate::QExplicitlySharedDataPointerV2", ptr %3, i32 0, i32 0
  %5 = load ptr, ptr %4, align 8
  %6 = icmp ne ptr %5, null
  br i1 %6, label %7, label %18

7:                                                ; preds = %1
  %8 = getelementptr inbounds %"class.QtPrivate::QExplicitlySharedDataPointerV2", ptr %3, i32 0, i32 0
  %9 = load ptr, ptr %8, align 8
  %10 = getelementptr inbounds %class.QSharedData, ptr %9, i32 0, i32 0
  %11 = call noundef zeroext i1 @_ZN19QBasicAtomicIntegerIiE5derefEv(ptr noundef nonnull align 4 dereferenceable(4) %10) #15
  br i1 %11, label %18, label %12

12:                                               ; preds = %7
  %13 = getelementptr inbounds %"class.QtPrivate::QExplicitlySharedDataPointerV2", ptr %3, i32 0, i32 0
  %14 = load ptr, ptr %13, align 8
  %15 = icmp eq ptr %14, null
  br i1 %15, label %17, label %16

16:                                               ; preds = %12
  call void @_ZN8QMapDataISt8multimapId11WSCPSeqDataSt4lessIdESaISt4pairIKdS1_EEEED2Ev(ptr noundef nonnull align 8 dereferenceable(56) %14) #15
  call void @_ZdlPv(ptr noundef %14) #16
  br label %17

17:                                               ; preds = %16, %12
  br label %18

18:                                               ; preds = %17, %7, %1
  ret void
}

; Function Attrs: mustprogress nounwind uwtable
define linkonce_odr void @_ZN9QMultiMapId11WSCPSeqDataED2Ev(ptr noundef nonnull align 8 dereferenceable(8) %0) unnamed_addr #0 comdat align 2 {
  %2 = alloca ptr, align 8
  store ptr %0, ptr %2, align 8
  %3 = load ptr, ptr %2, align 8
  %4 = getelementptr inbounds %class.QMultiMap, ptr %3, i32 0, i32 0
  call void @_ZN9QtPrivate30QExplicitlySharedDataPointerV2I8QMapDataISt8multimapId11WSCPSeqDataSt4lessIdESaISt4pairIKdS3_EEEEED2Ev(ptr noundef nonnull align 8 dereferenceable(8) %4) #15
  ret void
}

; Function Attrs: mustprogress nounwind uwtable
define void @_ZN15SequenceDiagramD2Ev(ptr noundef nonnull align 8 dereferenceable(240) %0) unnamed_addr #0 align 2 {
  %2 = alloca ptr, align 8
  store ptr %0, ptr %2, align 8
  %3 = load ptr, ptr %2, align 8
  store ptr getelementptr inbounds ({ [32 x ptr] }, ptr @_ZTV15SequenceDiagram, i32 0, i32 0, i32 2), ptr %3, align 8
  %4 = getelementptr inbounds %class.SequenceDiagram, ptr %3, i32 0, i32 4
  %5 = load ptr, ptr %4, align 8
  %6 = icmp eq ptr %5, null
  br i1 %6, label %8, label %7

7:                                                ; preds = %1
  call void @_ZN9QMultiMapId11WSCPSeqDataED2Ev(ptr noundef nonnull align 8 dereferenceable(8) %5) #15
  call void @_ZdlPv(ptr noundef %5) #16
  br label %8

8:                                                ; preds = %7, %1
  call void @_ZN20QCPAbstractPlottableD2Ev(ptr noundef nonnull align 8 dereferenceable(184) %3) #15
  ret void
}