; Function Attrs: mustprogress nounwind uwtable
define void @_ZN15SequenceDiagramD2Ev(ptr noundef nonnull align 8 dereferenceable(240) %0) unnamed_addr #7 align 2 personality ptr @__gxx_personality_v0 {
  store ptr getelementptr inbounds ({ [32 x ptr] }, ptr @_ZTV15SequenceDiagram, i64 0, i32 0, i64 2), ptr %0, align 8
  %2 = getelementptr inbounds i8, ptr %0, i64 208
  %3 = load ptr, ptr %2, align 8
  %4 = icmp eq ptr %3, null
  br i1 %4, label %19, label %5

5:                                                ; preds = %1
  %6 = load ptr, ptr %3, align 8
  %.not.i.i = icmp eq ptr %6, null
  br i1 %.not.i.i, label %_ZN9QMultiMapId11WSCPSeqDataED2Ev.exit, label %7

7:                                                ; preds = %5
  %8 = atomicrmw sub ptr %6, i32 1 seq_cst, align 4
  %.not2.i.i = icmp eq i32 %8, 1
  br i1 %.not2.i.i, label %9, label %_ZN9QMultiMapId11WSCPSeqDataED2Ev.exit

9:                                                ; preds = %7
  %10 = load ptr, ptr %3, align 8
  %11 = icmp eq ptr %10, null
  br i1 %11, label %_ZN9QMultiMapId11WSCPSeqDataED2Ev.exit, label %12

12:                                               ; preds = %9
  %13 = getelementptr inbounds i8, ptr %10, i64 8
  %14 = getelementptr inbounds i8, ptr %10, i64 24
  %15 = load ptr, ptr %14, align 8
  invoke void @_ZNSt8_Rb_treeIdSt4pairIKd11WSCPSeqDataESt10_Select1stIS3_ESt4lessIdESaIS3_EE8_M_eraseEPSt13_Rb_tree_nodeIS3_E(ptr noundef nonnull align 8 dereferenceable(48) %13, ptr noundef %15)
          to label %_ZN8QMapDataISt8multimapId11WSCPSeqDataSt4lessIdESaISt4pairIKdS1_EEEED2Ev.exit.i.i unwind label %16

16:                                               ; preds = %12
  %17 = landingpad { ptr, i32 }
          catch ptr null
  %18 = extractvalue { ptr, i32 } %17, 0
  tail call void @__clang_call_terminate(ptr %18) #23
  unreachable

_ZN8QMapDataISt8multimapId11WSCPSeqDataSt4lessIdESaISt4pairIKdS1_EEEED2Ev.exit.i.i: ; preds = %12
  tail call void @_ZdlPv(ptr noundef nonnull %10) #24
  br label %_ZN9QMultiMapId11WSCPSeqDataED2Ev.exit

_ZN9QMultiMapId11WSCPSeqDataED2Ev.exit:           ; preds = %5, %7, %9, %_ZN8QMapDataISt8multimapId11WSCPSeqDataSt4lessIdESaISt4pairIKdS1_EEEED2Ev.exit.i.i
  tail call void @_ZdlPv(ptr noundef nonnull %3) #24
  br label %19

19:                                               ; preds = %_ZN9QMultiMapId11WSCPSeqDataED2Ev.exit, %1
  tail call void @_ZN20QCPAbstractPlottableD2Ev(ptr noundef nonnull align 8 dereferenceable(184) %0) #21
  ret void
}